target datalayout = "e-m:e-p270:32:32-p271:32:32-p272:64:64-i64:64-i128:128-f80:128-n8:16:32:64-S128"
target triple = "x86_64-pc-linux-gnu"

%struct.siv128_context = type { %union.siv_block_u, %union.siv_block_u, ptr, ptr, ptr, i32, i32 }
%union.siv_block_u = type { [2 x i64] }

; Function Attrs: nounwind uwtable
define i32 @ossl_siv128_copy_ctx(ptr noundef %0, ptr noundef %1) #0 {
  %3 = alloca i32, align 4
  %4 = alloca ptr, align 8
  %5 = alloca ptr, align 8
  store ptr %0, ptr %4, align 8, !tbaa !14
  store ptr %1, ptr %5, align 8, !tbaa !14
  %6 = load ptr, ptr %4, align 8, !tbaa !14
  %7 = getelementptr inbounds nuw %struct.siv128_context, ptr %6, i32 0, i32 0
  %8 = load ptr, ptr %5, align 8, !tbaa !14
  %9 = getelementptr inbounds nuw %struct.siv128_context, ptr %8, i32 0, i32 0
  call void @llvm.memcpy.p0.p0.i64(ptr align 8 %7, ptr align 8 %9, i64 16, i1 false)
  %10 = load ptr, ptr %4, align 8, !tbaa !14
  %11 = getelementptr inbounds nuw %struct.siv128_context, ptr %10, i32 0, i32 2
  %12 = load ptr, ptr %11, align 8, !tbaa !20
  %13 = icmp eq ptr %12, null
  br i1 %13, label %14, label %24

14:                                               ; preds = %2
  %15 = call ptr @EVP_CIPHER_CTX_new()
  %16 = load ptr, ptr %4, align 8, !tbaa !14
  %17 = getelementptr inbounds nuw %struct.siv128_context, ptr %16, i32 0, i32 2
  store ptr %15, ptr %17, align 8, !tbaa !20
  %18 = load ptr, ptr %4, align 8, !tbaa !14
  %19 = getelementptr inbounds nuw %struct.siv128_context, ptr %18, i32 0, i32 2
  %20 = load ptr, ptr %19, align 8, !tbaa !20
  %21 = icmp eq ptr %20, null
  br i1 %21, label %22, label %23

22:                                               ; preds = %14
  store i32 0, ptr %3, align 4
  br label %65

23:                                               ; preds = %14
  br label %24

24:                                               ; preds = %23, %2
  %25 = load ptr, ptr %4, align 8, !tbaa !14
  %26 = getelementptr inbounds nuw %struct.siv128_context, ptr %25, i32 0, i32 2
  %27 = load ptr, ptr %26, align 8, !tbaa !20
  %28 = load ptr, ptr %5, align 8, !tbaa !14
  %29 = getelementptr inbounds nuw %struct.siv128_context, ptr %28, i32 0, i32 2
  %30 = load ptr, ptr %29, align 8, !tbaa !20
  %31 = call i32 @EVP_CIPHER_CTX_copy(ptr noundef %27, ptr noundef %30)
  %32 = icmp ne i32 %31, 0
  br i1 %32, label %34, label %33

33:                                               ; preds = %24
  store i32 0, ptr %3, align 4
  br label %65

34:                                               ; preds = %24
  %35 = load ptr, ptr %4, align 8, !tbaa !14
  %36 = getelementptr inbounds nuw %struct.siv128_context, ptr %35, i32 0, i32 4
  %37 = load ptr, ptr %36, align 8, !tbaa !24
  call void @EVP_MAC_CTX_free(ptr noundef %37)
  %38 = load ptr, ptr %5, align 8, !tbaa !14
  %39 = getelementptr inbounds nuw %struct.siv128_context, ptr %38, i32 0, i32 4
  %40 = load ptr, ptr %39, align 8, !tbaa !24
  %41 = call ptr @EVP_MAC_CTX_dup(ptr noundef %40)
  %42 = load ptr, ptr %4, align 8, !tbaa !14
  %43 = getelementptr inbounds nuw %struct.siv128_context, ptr %42, i32 0, i32 4
  store ptr %41, ptr %43, align 8, !tbaa !24
  %44 = load ptr, ptr %4, align 8, !tbaa !14
  %45 = getelementptr inbounds nuw %struct.siv128_context, ptr %44, i32 0, i32 4
  %46 = load ptr, ptr %45, align 8, !tbaa !24
  %47 = icmp eq ptr %46, null
  br i1 %47, label %48, label %49

48:                                               ; preds = %34
  store i32 0, ptr %3, align 4
  br label %65

49:                                               ; preds = %34
  %50 = load ptr, ptr %5, align 8, !tbaa !14
  %51 = getelementptr inbounds nuw %struct.siv128_context, ptr %50, i32 0, i32 3
  %52 = load ptr, ptr %51, align 8, !tbaa !25
  %53 = load ptr, ptr %4, align 8, !tbaa !14
  %54 = getelementptr inbounds nuw %struct.siv128_context, ptr %53, i32 0, i32 3
  store ptr %52, ptr %54, align 8, !tbaa !25
  %55 = load ptr, ptr %4, align 8, !tbaa !14
  %56 = getelementptr inbounds nuw %struct.siv128_context, ptr %55, i32 0, i32 3
  %57 = load ptr, ptr %56, align 8, !tbaa !25
  %58 = icmp ne ptr %57, null
  br i1 %58, label %59, label %64

59:                                               ; preds = %49
  %60 = load ptr, ptr %4, align 8, !tbaa !14
  %61 = getelementptr inbounds nuw %struct.siv128_context, ptr %60, i32 0, i32 3
  %62 = load ptr, ptr %61, align 8, !tbaa !25
  %63 = call i32 @EVP_MAC_up_ref(ptr noundef %62)
  br label %64

64:                                               ; preds = %59, %49
  store i32 1, ptr %3, align 4
  br label %65

65:                                               ; preds = %64, %48, %33, %22
  %66 = load i32, ptr %3, align 4
  ret i32 %66
}