; Function Attrs: nounwind uwtable
define range(i32 0, 2) i32 @ossl_siv128_copy_ctx(ptr noundef captures(none) initializes((0, 16)) %0, ptr noundef readonly captures(none) %1) local_unnamed_addr #0 {
  tail call void @llvm.memcpy.p0.p0.i64(ptr noundef nonnull align 8 dereferenceable(16) %0, ptr noundef nonnull align 8 dereferenceable(16) %1, i64 16, i1 false)
  %3 = getelementptr inbounds nuw i8, ptr %0, i64 32
  %4 = load ptr, ptr %3, align 8, !tbaa !7
  %5 = icmp eq ptr %4, null
  br i1 %5, label %6, label %9

6:                                                ; preds = %2
  %7 = tail call ptr @EVP_CIPHER_CTX_new() #10
  store ptr %7, ptr %3, align 8, !tbaa !7
  %8 = icmp eq ptr %7, null
  br i1 %8, label %27, label %9

9:                                                ; preds = %6, %2
  %10 = phi ptr [ %7, %6 ], [ %4, %2 ]
  %11 = getelementptr inbounds nuw i8, ptr %1, i64 32
  %12 = load ptr, ptr %11, align 8, !tbaa !7
  %13 = tail call i32 @EVP_CIPHER_CTX_copy(ptr noundef nonnull %10, ptr noundef %12) #10
  %.not = icmp eq i32 %13, 0
  br i1 %.not, label %27, label %14

14:                                               ; preds = %9
  %15 = getelementptr inbounds nuw i8, ptr %0, i64 48
  %16 = load ptr, ptr %15, align 8, !tbaa !14
  tail call void @EVP_MAC_CTX_free(ptr noundef %16) #10
  %17 = getelementptr inbounds nuw i8, ptr %1, i64 48
  %18 = load ptr, ptr %17, align 8, !tbaa !14
  %19 = tail call ptr @EVP_MAC_CTX_dup(ptr noundef %18) #10
  store ptr %19, ptr %15, align 8, !tbaa !14
  %20 = icmp eq ptr %19, null
  br i1 %20, label %27, label %21

21:                                               ; preds = %14
  %22 = getelementptr inbounds nuw i8, ptr %1, i64 40
  %23 = load ptr, ptr %22, align 8, !tbaa !15
  %24 = getelementptr inbounds nuw i8, ptr %0, i64 40
  store ptr %23, ptr %24, align 8, !tbaa !15
  %.not16 = icmp eq ptr %23, null
  br i1 %.not16, label %27, label %25

25:                                               ; preds = %21
  %26 = tail call i32 @EVP_MAC_up_ref(ptr noundef nonnull %23) #10
  br label %27

27:                                               ; preds = %21, %25, %14, %9, %6
  %.0 = phi i32 [ 0, %6 ], [ 0, %9 ], [ 0, %14 ], [ 1, %25 ], [ 1, %21 ]
  ret i32 %.0
}